; Function Attrs: mustprogress uwtable
define noundef range(i64 0, 4294967296) i64 @_ZN6google8protobuf8internal14WireFormatLite10SInt32SizeERKNS0_13RepeatedFieldIiEE(ptr noundef nonnull align 8 dereferenceable(16) %0) local_unnamed_addr #3 align 2 {
  %2 = tail call noundef ptr @_ZNK6google8protobuf13RepeatedFieldIiE4dataEv(ptr noundef nonnull align 8 dereferenceable(16) %0)
  %3 = tail call noundef i32 @_ZNK6google8protobuf13RepeatedFieldIiE4sizeEv(ptr noundef nonnull align 8 dereferenceable(16) %0)
  %4 = icmp sgt i32 %3, 0
  br i1 %4, label %.lr.ph.preheader.i, label %_ZN6google8protobuf8internalL10VarintSizeILb1ELb0EiEEmPKT1_i.exit

.lr.ph.preheader.i:                               ; preds = %1
  %wide.trip.count.i = zext nneg i32 %3 to i64
  br label %.lr.ph.i

.lr.ph.i:                                         ; preds = %.lr.ph.i, %.lr.ph.preheader.i
  %indvars.iv.i = phi i64 [ 0, %.lr.ph.preheader.i ], [ %indvars.iv.next.i, %.lr.ph.i ]
  %.01516.i = phi i32 [ %3, %.lr.ph.preheader.i ], [ %op.rdx, %.lr.ph.i ]
  %5 = getelementptr inbounds i32, ptr %2, i64 %indvars.iv.i
  %6 = load i32, ptr %5, align 4
  %7 = shl i32 %6, 1
  %8 = ashr i32 %6, 31
  %9 = xor i32 %7, %8
  %10 = insertelement <4 x i32> poison, i32 %9, i64 0
  %11 = shufflevector <4 x i32> %10, <4 x i32> poison, <4 x i32> zeroinitializer
  %12 = icmp ugt <4 x i32> %11, <i32 127, i32 16383, i32 2097151, i32 268435455>
  %13 = bitcast <4 x i1> %12 to i4
  %14 = tail call range(i4 0, 5) i4 @llvm.ctpop.i4(i4 %13)
  %15 = zext nneg i4 %14 to i32
  %op.rdx = add i32 %.01516.i, %15
  %indvars.iv.next.i = add nuw nsw i64 %indvars.iv.i, 1
  %exitcond.not.i = icmp eq i64 %indvars.iv.next.i, %wide.trip.count.i
  br i1 %exitcond.not.i, label %_ZN6google8protobuf8internalL10VarintSizeILb1ELb0EiEEmPKT1_i.exit, label %.lr.ph.i, !llvm.loop !12

_ZN6google8protobuf8internalL10VarintSizeILb1ELb0EiEEmPKT1_i.exit: ; preds = %.lr.ph.i, %1
  %.015.lcssa.i = phi i32 [ %3, %1 ], [ %op.rdx, %.lr.ph.i ]
  %16 = zext i32 %.015.lcssa.i to i64
  ret i64 %16
}